target datalayout = "e-m:e-p270:32:32-p271:32:32-p272:64:64-i64:64-i128:128-f80:128-n8:16:32:64-S128"
target triple = "x86_64-pc-linux-gnu"

%struct.CPpmd7 = type { ptr, ptr, ptr, i32, i32, i32, i32, i32, i32, i32, i32, i32, ptr, ptr, ptr, ptr, ptr, i32, [38 x i8], [128 x i8], [38 x i32], [256 x i8], [256 x i8], [256 x i8], %struct.CPpmd_See, [25 x [16 x %struct.CPpmd_See]], [128 x [64 x i16]] }
%struct.CPpmd_See = type { i16, i8, i8 }
%struct.CPpmd7_Context_ = type { i16, i16, i32, i32 }
%struct.CPpmd_State = type { i8, i8, i16, i16 }

; Function Attrs: nounwind uwtable
define void @Ppmd7_Update2(ptr noundef %0) #0 {
  %2 = alloca ptr, align 8
  store ptr %0, ptr %2, align 8, !tbaa !3
  %3 = load ptr, ptr %2, align 8, !tbaa !3
  %4 = getelementptr inbounds nuw %struct.CPpmd7, ptr %3, i32 0, i32 0
  %5 = load ptr, ptr %4, align 8, !tbaa !35
  %6 = getelementptr inbounds nuw %struct.CPpmd7_Context_, ptr %5, i32 0, i32 1
  %7 = load i16, ptr %6, align 2, !tbaa !39
  %8 = zext i16 %7 to i32
  %9 = add nsw i32 %8, 4
  %10 = trunc i32 %9 to i16
  store i16 %10, ptr %6, align 2, !tbaa !39
  %11 = load ptr, ptr %2, align 8, !tbaa !3
  %12 = getelementptr inbounds nuw %struct.CPpmd7, ptr %11, i32 0, i32 2
  %13 = load ptr, ptr %12, align 8, !tbaa !40
  %14 = getelementptr inbounds nuw %struct.CPpmd_State, ptr %13, i32 0, i32 1
  %15 = load i8, ptr %14, align 1, !tbaa !44
  %16 = zext i8 %15 to i32
  %17 = add nsw i32 %16, 4
  %18 = trunc i32 %17 to i8
  store i8 %18, ptr %14, align 1, !tbaa !44
  %19 = zext i8 %18 to i32
  %20 = icmp sgt i32 %19, 124
  br i1 %20, label %21, label %23

21:                                               ; preds = %1
  %22 = load ptr, ptr %2, align 8, !tbaa !3
  call void @Rescale(ptr noundef %22)
  br label %23

23:                                               ; preds = %21, %1
  %24 = load ptr, ptr %2, align 8, !tbaa !3
  %25 = getelementptr inbounds nuw %struct.CPpmd7, ptr %24, i32 0, i32 9
  %26 = load i32, ptr %25, align 8, !tbaa !31
  %27 = load ptr, ptr %2, align 8, !tbaa !3
  %28 = getelementptr inbounds nuw %struct.CPpmd7, ptr %27, i32 0, i32 8
  store i32 %26, ptr %28, align 4, !tbaa !32
  %29 = load ptr, ptr %2, align 8, !tbaa !3
  call void @UpdateModel(ptr noundef %29)
  ret void
}