; Function Attrs: nofree norecurse nosync nounwind memory(readwrite, inaccessiblemem: none) uwtable
define void @Ppmd7_Update2(ptr noundef captures(none) %0) local_unnamed_addr #6 {
  %2 = load ptr, ptr %0, align 8, !tbaa !32
  %3 = getelementptr inbounds nuw i8, ptr %2, i64 2
  %4 = load i16, ptr %3, align 2, !tbaa !36
  %5 = add i16 %4, 4
  store i16 %5, ptr %3, align 2, !tbaa !36
  %6 = getelementptr inbounds nuw i8, ptr %0, i64 16
  %7 = load ptr, ptr %6, align 8, !tbaa !37
  %8 = getelementptr inbounds nuw i8, ptr %7, i64 1
  %9 = load i8, ptr %8, align 1, !tbaa !42
  %10 = add i8 %9, 4
  store i8 %10, ptr %8, align 1, !tbaa !42
  %11 = icmp ugt i8 %10, 124
  br i1 %11, label %12, label %13

12:                                               ; preds = %1
  tail call fastcc void @Rescale(ptr noundef nonnull %0)
  br label %13

13:                                               ; preds = %12, %1
  %14 = getelementptr inbounds nuw i8, ptr %0, i64 48
  %15 = load i32, ptr %14, align 8, !tbaa !27
  %16 = getelementptr inbounds nuw i8, ptr %0, i64 44
  store i32 %15, ptr %16, align 4, !tbaa !28
  tail call fastcc void @UpdateModel(ptr noundef nonnull %0)
  ret void
}